target datalayout = "e-m:e-p270:32:32-p271:32:32-p272:64:64-i64:64-i128:128-f80:128-n8:16:32:64-S128"
target triple = "x86_64-pc-linux-gnu"

%struct.MultiXactMember = type { i32, i32 }

; Function Attrs: nounwind uwtable
define dso_local zeroext i1 @MultiXactIdIsRunning(i32 noundef %0, i1 noundef zeroext %1) #0 {
  %3 = alloca i1, align 1
  %4 = alloca i32, align 4
  %5 = alloca i8, align 1
  %6 = alloca ptr, align 8
  %7 = alloca i32, align 4
  %8 = alloca i32, align 4
  %9 = alloca i32, align 4
  store i32 %0, ptr %4, align 4
  %10 = zext i1 %1 to i8
  store i8 %10, ptr %5, align 1
  call void @llvm.lifetime.start.p0(i64 8, ptr %6) #9
  call void @llvm.lifetime.start.p0(i64 4, ptr %7) #9
  call void @llvm.lifetime.start.p0(i64 4, ptr %8) #9
  %11 = load i32, ptr %4, align 4
  %12 = load i8, ptr %5, align 1, !range !4, !noundef !5
  %13 = trunc i8 %12 to i1
  %14 = call i32 @GetMultiXactIdMembers(i32 noundef %11, ptr noundef %6, i1 noundef zeroext false, i1 noundef zeroext %13)
  store i32 %14, ptr %7, align 4
  %15 = load i32, ptr %7, align 4
  %16 = icmp sle i32 %15, 0
  br i1 %16, label %17, label %18

17:                                               ; preds = %2
  store i1 false, ptr %3, align 1
  store i32 1, ptr %9, align 4
  br label %58

18:                                               ; preds = %2
  store i32 0, ptr %8, align 4
  br label %19

19:                                               ; preds = %34, %18
  %20 = load i32, ptr %8, align 4
  %21 = load i32, ptr %7, align 4
  %22 = icmp slt i32 %20, %21
  br i1 %22, label %23, label %37

23:                                               ; preds = %19
  %24 = load ptr, ptr %6, align 8
  %25 = load i32, ptr %8, align 4
  %26 = sext i32 %25 to i64
  %27 = getelementptr inbounds %struct.MultiXactMember, ptr %24, i64 %26
  %28 = getelementptr inbounds nuw %struct.MultiXactMember, ptr %27, i32 0, i32 0
  %29 = load i32, ptr %28, align 4
  %30 = call zeroext i1 @TransactionIdIsCurrentTransactionId(i32 noundef %29)
  br i1 %30, label %31, label %33

31:                                               ; preds = %23
  %32 = load ptr, ptr %6, align 8
  call void @pfree(ptr noundef %32)
  store i1 true, ptr %3, align 1
  store i32 1, ptr %9, align 4
  br label %58

33:                                               ; preds = %23
  br label %34

34:                                               ; preds = %33
  %35 = load i32, ptr %8, align 4
  %36 = add i32 %35, 1
  store i32 %36, ptr %8, align 4
  br label %19, !llvm.loop !11

37:                                               ; preds = %19
  store i32 0, ptr %8, align 4
  br label %38

38:                                               ; preds = %53, %37
  %39 = load i32, ptr %8, align 4
  %40 = load i32, ptr %7, align 4
  %41 = icmp slt i32 %39, %40
  br i1 %41, label %42, label %56

42:                                               ; preds = %38
  %43 = load ptr, ptr %6, align 8
  %44 = load i32, ptr %8, align 4
  %45 = sext i32 %44 to i64
  %46 = getelementptr inbounds %struct.MultiXactMember, ptr %43, i64 %45
  %47 = getelementptr inbounds nuw %struct.MultiXactMember, ptr %46, i32 0, i32 0
  %48 = load i32, ptr %47, align 4
  %49 = call zeroext i1 @TransactionIdIsInProgress(i32 noundef %48)
  br i1 %49, label %50, label %52

50:                                               ; preds = %42
  %51 = load ptr, ptr %6, align 8
  call void @pfree(ptr noundef %51)
  store i1 true, ptr %3, align 1
  store i32 1, ptr %9, align 4
  br label %58

52:                                               ; preds = %42
  br label %53

53:                                               ; preds = %52
  %54 = load i32, ptr %8, align 4
  %55 = add i32 %54, 1
  store i32 %55, ptr %8, align 4
  br label %38, !llvm.loop !12

56:                                               ; preds = %38
  %57 = load ptr, ptr %6, align 8
  call void @pfree(ptr noundef %57)
  store i1 false, ptr %3, align 1
  store i32 1, ptr %9, align 4
  br label %58

58:                                               ; preds = %56, %50, %31, %17
  call void @llvm.lifetime.end.p0(i64 4, ptr %8) #9
  call void @llvm.lifetime.end.p0(i64 4, ptr %7) #9
  call void @llvm.lifetime.end.p0(i64 8, ptr %6) #9
  %59 = load i1, ptr %3, align 1
  ret i1 %59
}