; Function Attrs: nounwind uwtable
define dso_local noundef zeroext i1 @MultiXactIdIsRunning(i32 noundef %0, i1 noundef zeroext %1) local_unnamed_addr #0 {
  %3 = alloca ptr, align 8
  call void @llvm.lifetime.start.p0(i64 8, ptr nonnull %3) #13
  %4 = call i32 @GetMultiXactIdMembers(i32 noundef %0, ptr noundef nonnull %3, i1 noundef zeroext false, i1 noundef zeroext %1)
  %5 = icmp slt i32 %4, 1
  br i1 %5, label %15, label %.preheader13

.preheader13:                                     ; preds = %2
  %6 = load ptr, ptr %3, align 8
  %wide.trip.count = zext nneg i32 %4 to i64
  br label %8

7:                                                ; preds = %8
  %indvars.iv.next = add nuw nsw i64 %indvars.iv, 1
  %exitcond.not = icmp eq i64 %indvars.iv.next, %wide.trip.count
  br i1 %exitcond.not, label %.lr.ph, label %8, !llvm.loop !16

8:                                                ; preds = %.preheader13, %7
  %indvars.iv = phi i64 [ 0, %.preheader13 ], [ %indvars.iv.next, %7 ]
  %9 = getelementptr inbounds nuw %struct.MultiXactMember, ptr %6, i64 %indvars.iv
  %10 = load i32, ptr %9, align 4
  %11 = tail call zeroext i1 @TransactionIdIsCurrentTransactionId(i32 noundef %10) #13
  br i1 %11, label %.sink.split, label %7

.lr.ph:                                           ; preds = %7, %.lr.ph
  %indvars.iv18 = phi i64 [ %indvars.iv.next19, %.lr.ph ], [ 0, %7 ]
  %12 = getelementptr inbounds nuw %struct.MultiXactMember, ptr %6, i64 %indvars.iv18
  %13 = load i32, ptr %12, align 4
  %14 = tail call zeroext i1 @TransactionIdIsInProgress(i32 noundef %13) #13
  %indvars.iv.next19 = add nuw nsw i64 %indvars.iv18, 1
  %exitcond22.not = icmp eq i64 %indvars.iv.next19, %wide.trip.count
  %or.cond = select i1 %14, i1 true, i1 %exitcond22.not
  br i1 %or.cond, label %.sink.split, label %.lr.ph, !llvm.loop !17

.sink.split:                                      ; preds = %8, %.lr.ph
  %.011.ph = phi i1 [ %14, %.lr.ph ], [ true, %8 ]
  tail call void @pfree(ptr noundef nonnull %6) #13
  br label %15

15:                                               ; preds = %.sink.split, %2
  %.011 = phi i1 [ false, %2 ], [ %.011.ph, %.sink.split ]
  call void @llvm.lifetime.end.p0(i64 8, ptr nonnull %3) #13
  ret i1 %.011
}